target datalayout = "e-m:e-p270:32:32-p271:32:32-p272:64:64-i64:64-i128:128-f80:128-n8:16:32:64-S128"
target triple = "x86_64-pc-linux-gnu"

%struct.slurmctld_lock_t = type { i32, i32, i32, i32, i32 }
%struct.slurm_conf_t = type { i64, ptr, i16, ptr, ptr, ptr, ptr, ptr, i16, ptr, ptr, ptr, ptr, ptr, ptr, ptr, i16, ptr, ptr, ptr, ptr, i16, ptr, ptr, ptr, i64, ptr, ptr, ptr, ptr, i16, ptr, ptr, i16, i32, ptr, i32, ptr, i32, i32, ptr, ptr, i64, i64, ptr, i16, i16, ptr, i32, i32, ptr, i32, ptr, i32, i16, i16, i16, ptr, i16, i16, ptr, ptr, i32, i16, i16, ptr, i32, i16, ptr, ptr, ptr, ptr, i16, ptr, ptr, ptr, ptr, i32, ptr, ptr, ptr, ptr, i16, i16, ptr, i32, i32, i32, i16, i16, ptr, ptr, i16, ptr, ptr, i32, i32, i32, i32, i32, i64, i32, i32, i16, ptr, ptr, i32, ptr, ptr, ptr, i16, i32, ptr, ptr, i16, ptr, ptr, i32, i16, ptr, ptr, ptr, ptr, i32, i32, i16, i16, i32, ptr, i16, ptr, i32, i32, i32, i32, i32, i32, ptr, i16, ptr, ptr, i32, i16, ptr, i32, i16, i16, ptr, ptr, ptr, i16, ptr, ptr, ptr, ptr, i16, i16, ptr, i16, ptr, i16, ptr, i16, ptr, i16, ptr, ptr, ptr, ptr, i16, ptr, ptr, ptr, i32, ptr, i32, ptr, ptr, i16, ptr, ptr, i32, i16, ptr, ptr, i16, i16, ptr, i16, ptr, ptr, ptr, i32, ptr, i16, i16, ptr, ptr, ptr, ptr, ptr, ptr, ptr, ptr, i16, i32, i16, ptr, ptr, ptr, ptr, i32, ptr, ptr, ptr, i16, ptr, ptr, ptr, i16, ptr, i16, ptr, i16, i16, ptr }
%struct.timeval = type { i64, i64 }

@dump_all_node_state.high_buffer_size = internal global i32 1048576, align 4
@__const.dump_all_node_state.node_read_lock = private unnamed_addr constant %struct.slurmctld_lock_t { i32 1, i32 0, i32 1, i32 0, i32 0 }, align 4
@.str = private unnamed_addr constant [17 x i8] c"PROTOCOL_VERSION\00", align 1
@.str.1 = private unnamed_addr constant [11 x i8] c"node_state\00", align 1
@__func__.dump_all_node_state = private unnamed_addr constant [20 x i8] c"dump_all_node_state\00", align 1
@slurm_conf = external global %struct.slurm_conf_t, align 8

; Function Attrs: nounwind uwtable
define internal void @_dump_cluster_settings(ptr noundef %0) #0 {
  %2 = alloca ptr, align 8
  %3 = alloca i32, align 4
  %4 = alloca i32, align 4
  %5 = alloca i32, align 4
  store ptr %0, ptr %2, align 8
  br label %6

6:                                                ; preds = %1
  call void @llvm.lifetime.start.p0(i64 4, ptr %3) #10
  store i32 0, ptr %3, align 4
  %7 = load ptr, ptr getelementptr inbounds nuw (%struct.slurm_conf_t, ptr @slurm_conf, i32 0, i32 200), align 8
  %8 = icmp ne ptr %7, null
  br i1 %8, label %9, label %14

9:                                                ; preds = %6
  %10 = load ptr, ptr getelementptr inbounds nuw (%struct.slurm_conf_t, ptr @slurm_conf, i32 0, i32 200), align 8
  %11 = call i64 @strlen(ptr noundef %10) #11
  %12 = trunc i64 %11 to i32
  %13 = add i32 %12, 1
  store i32 %13, ptr %3, align 4
  br label %14

14:                                               ; preds = %9, %6
  %15 = load ptr, ptr getelementptr inbounds nuw (%struct.slurm_conf_t, ptr @slurm_conf, i32 0, i32 200), align 8
  %16 = load i32, ptr %3, align 4
  %17 = load ptr, ptr %2, align 8
  call void @packmem(ptr noundef %15, i32 noundef %16, ptr noundef %17)
  call void @llvm.lifetime.end.p0(i64 4, ptr %3) #10
  br label %18

18:                                               ; preds = %14
  br label %19

19:                                               ; preds = %18
  call void @llvm.lifetime.start.p0(i64 4, ptr %4) #10
  store i32 0, ptr %4, align 4
  %20 = load ptr, ptr getelementptr inbounds nuw (%struct.slurm_conf_t, ptr @slurm_conf, i32 0, i32 201), align 8
  %21 = icmp ne ptr %20, null
  br i1 %21, label %22, label %27

22:                                               ; preds = %19
  %23 = load ptr, ptr getelementptr inbounds nuw (%struct.slurm_conf_t, ptr @slurm_conf, i32 0, i32 201), align 8
  %24 = call i64 @strlen(ptr noundef %23) #11
  %25 = trunc i64 %24 to i32
  %26 = add i32 %25, 1
  store i32 %26, ptr %4, align 4
  br label %27

27:                                               ; preds = %22, %19
  %28 = load ptr, ptr getelementptr inbounds nuw (%struct.slurm_conf_t, ptr @slurm_conf, i32 0, i32 201), align 8
  %29 = load i32, ptr %4, align 4
  %30 = load ptr, ptr %2, align 8
  call void @packmem(ptr noundef %28, i32 noundef %29, ptr noundef %30)
  call void @llvm.lifetime.end.p0(i64 4, ptr %4) #10
  br label %31

31:                                               ; preds = %27
  br label %32

32:                                               ; preds = %31
  call void @llvm.lifetime.start.p0(i64 4, ptr %5) #10
  store i32 0, ptr %5, align 4
  %33 = load ptr, ptr getelementptr inbounds nuw (%struct.slurm_conf_t, ptr @slurm_conf, i32 0, i32 202), align 8
  %34 = icmp ne ptr %33, null
  br i1 %34, label %35, label %40

35:                                               ; preds = %32
  %36 = load ptr, ptr getelementptr inbounds nuw (%struct.slurm_conf_t, ptr @slurm_conf, i32 0, i32 202), align 8
  %37 = call i64 @strlen(ptr noundef %36) #11
  %38 = trunc i64 %37 to i32
  %39 = add i32 %38, 1
  store i32 %39, ptr %5, align 4
  br label %40

40:                                               ; preds = %35, %32
  %41 = load ptr, ptr getelementptr inbounds nuw (%struct.slurm_conf_t, ptr @slurm_conf, i32 0, i32 202), align 8
  %42 = load i32, ptr %5, align 4
  %43 = load ptr, ptr %2, align 8
  call void @packmem(ptr noundef %41, i32 noundef %42, ptr noundef %43)
  call void @llvm.lifetime.end.p0(i64 4, ptr %5) #10
  br label %44

44:                                               ; preds = %40
  ret void
}

; Function Attrs: nounwind uwtable
define dso_local i32 @dump_all_node_state() #0 {
  %1 = alloca i32, align 4
  %2 = alloca i32, align 4
  %3 = alloca ptr, align 8
  %4 = alloca %struct.slurmctld_lock_t, align 8
  %5 = alloca ptr, align 8
  %6 = alloca %struct.timeval, align 8
  %7 = alloca %struct.timeval, align 8
  %8 = alloca [20 x i8], align 16
  %9 = alloca i64, align 8
  %10 = alloca i32, align 4
  call void @llvm.lifetime.start.p0(i64 4, ptr %1) #10
  store i32 0, ptr %1, align 4
  call void @llvm.lifetime.start.p0(i64 4, ptr %2) #10
  call void @llvm.lifetime.start.p0(i64 8, ptr %3) #10
  call void @llvm.lifetime.start.p0(i64 20, ptr %4) #10
  call void @llvm.memcpy.p0.p0.i64(ptr align 4 %4, ptr align 4 @__const.dump_all_node_state.node_read_lock, i64 20, i1 false)
  call void @llvm.lifetime.start.p0(i64 8, ptr %5) #10
  %11 = load i32, ptr @dump_all_node_state.high_buffer_size, align 4
  %12 = call ptr @init_buf(i32 noundef %11)
  store ptr %12, ptr %5, align 8
  call void @llvm.lifetime.start.p0(i64 16, ptr %6) #10
  call void @llvm.lifetime.start.p0(i64 16, ptr %7) #10
  call void @llvm.lifetime.start.p0(i64 20, ptr %8) #10
  call void @llvm.memset.p0.i64(ptr align 16 %8, i8 0, i64 20, i1 false)
  call void @llvm.lifetime.start.p0(i64 8, ptr %9) #10
  %13 = call i32 @gettimeofday(ptr noundef %6, ptr noundef null) #10
  br label %14

14:                                               ; preds = %0
  call void @llvm.lifetime.start.p0(i64 4, ptr %10) #10
  store i32 0, ptr %10, align 4
  store i32 17, ptr %10, align 4
  %15 = load i32, ptr %10, align 4
  %16 = load ptr, ptr %5, align 8
  call void @packmem(ptr noundef @.str, i32 noundef %15, ptr noundef %16)
  call void @llvm.lifetime.end.p0(i64 4, ptr %10) #10
  br label %17

17:                                               ; preds = %14
  br label %18

18:                                               ; preds = %17
  %19 = load ptr, ptr %5, align 8
  call void @pack16(i16 noundef zeroext 11008, ptr noundef %19)
  %20 = call i64 @time(ptr noundef null) #10
  %21 = load ptr, ptr %5, align 8
  call void @pack_time(i64 noundef %20, ptr noundef %21)
  call void @lock_slurmctld(ptr noundef byval(%struct.slurmctld_lock_t) align 8 %4)
  %22 = load ptr, ptr %5, align 8
  call void @_dump_cluster_settings(ptr noundef %22)
  %23 = load ptr, ptr %5, align 8
  call void @sackd_mgr_dump_state(ptr noundef %23, i16 noundef zeroext 11008)
  store i32 0, ptr %2, align 4
  br label %24

24:                                               ; preds = %30, %18
  %25 = call ptr @next_node(ptr noundef %2)
  store ptr %25, ptr %3, align 8
  %26 = icmp ne ptr %25, null
  br i1 %26, label %27, label %33

27:                                               ; preds = %24
  %28 = load ptr, ptr %3, align 8
  %29 = load ptr, ptr %5, align 8
  call void @node_record_pack_state(ptr noundef %28, i16 noundef zeroext 11008, ptr noundef %29)
  br label %30

30:                                               ; preds = %27
  %31 = load i32, ptr %2, align 4
  %32 = add nsw i32 %31, 1
  store i32 %32, ptr %2, align 4
  br label %24, !llvm.loop !8

33:                                               ; preds = %24
  call void @unlock_slurmctld(ptr noundef byval(%struct.slurmctld_lock_t) align 8 %4)
  %34 = load ptr, ptr %5, align 8
  %35 = call i32 @save_buf_to_state(ptr noundef @.str.1, ptr noundef %34, ptr noundef @dump_all_node_state.high_buffer_size)
  store i32 %35, ptr %1, align 4
  br label %36

36:                                               ; preds = %33
  %37 = load ptr, ptr %5, align 8
  %38 = icmp ne ptr %37, null
  br i1 %38, label %39, label %41

39:                                               ; preds = %36
  %40 = load ptr, ptr %5, align 8
  call void @free_buf(ptr noundef %40)
  br label %41

41:                                               ; preds = %39, %36
  store ptr null, ptr %5, align 8
  br label %42

42:                                               ; preds = %41
  br label %43

43:                                               ; preds = %42
  br label %44

44:                                               ; preds = %43
  %45 = call i32 @gettimeofday(ptr noundef %7, ptr noundef null) #10
  %46 = getelementptr inbounds [20 x i8], ptr %8, i64 0, i64 0
  call void @slurm_diff_tv_str(ptr noundef %6, ptr noundef %7, ptr noundef %46, i32 noundef 20, ptr noundef @__func__.dump_all_node_state, i64 noundef 0, ptr noundef %9)
  br label %47

47:                                               ; preds = %44
  br label %48

48:                                               ; preds = %47
  %49 = load i32, ptr %1, align 4
  call void @llvm.lifetime.end.p0(i64 8, ptr %9) #10
  call void @llvm.lifetime.end.p0(i64 20, ptr %8) #10
  call void @llvm.lifetime.end.p0(i64 16, ptr %7) #10
  call void @llvm.lifetime.end.p0(i64 16, ptr %6) #10
  call void @llvm.lifetime.end.p0(i64 8, ptr %5) #10
  call void @llvm.lifetime.end.p0(i64 20, ptr %4) #10
  call void @llvm.lifetime.end.p0(i64 8, ptr %3) #10
  call void @llvm.lifetime.end.p0(i64 4, ptr %2) #10
  call void @llvm.lifetime.end.p0(i64 4, ptr %1) #10
  ret i32 %49
}