; Function Attrs: nounwind uwtable
define dso_local i32 @dump_all_node_state() local_unnamed_addr #0 {
  %1 = alloca i32, align 4
  %2 = alloca %struct.timeval, align 8
  %3 = alloca %struct.timeval, align 8
  %4 = alloca [20 x i8], align 16
  %5 = alloca i64, align 8
  call void @llvm.lifetime.start.p0(i64 4, ptr nonnull %1) #15
  %6 = load i32, ptr @dump_all_node_state.high_buffer_size, align 4
  %7 = tail call ptr @init_buf(i32 noundef %6) #15
  call void @llvm.lifetime.start.p0(i64 16, ptr nonnull %2) #15
  call void @llvm.lifetime.start.p0(i64 16, ptr nonnull %3) #15
  call void @llvm.lifetime.start.p0(i64 20, ptr nonnull %4) #15
  call void @llvm.memset.p0.i64(ptr noundef nonnull align 16 dereferenceable(20) %4, i8 0, i64 20, i1 false)
  call void @llvm.lifetime.start.p0(i64 8, ptr nonnull %5) #15
  %8 = call i32 @gettimeofday(ptr noundef nonnull %2, ptr noundef null) #15
  tail call void @packmem(ptr noundef nonnull @.str, i32 noundef 17, ptr noundef %7) #15
  tail call void @pack16(i16 noundef zeroext 11008, ptr noundef %7) #15
  %9 = tail call i64 @time(ptr noundef null) #15
  tail call void @pack_time(i64 noundef %9, ptr noundef %7) #15
  tail call void @lock_slurmctld(ptr noundef nonnull byval(%struct.slurmctld_lock_t) align 8 @__const.dump_all_node_state.node_read_lock) #15
  %10 = load ptr, ptr getelementptr inbounds nuw (i8, ptr @slurm_conf, i64 1344), align 8
  %.not.i = icmp eq ptr %10, null
  br i1 %.not.i, label %15, label %11

11:                                               ; preds = %0
  %12 = tail call i64 @strlen(ptr noundef nonnull dereferenceable(1) %10) #16
  %13 = trunc i64 %12 to i32
  %14 = add i32 %13, 1
  br label %15

15:                                               ; preds = %11, %0
  %.06.i = phi i32 [ %14, %11 ], [ 0, %0 ]
  tail call void @packmem(ptr noundef %10, i32 noundef %.06.i, ptr noundef %7) #15
  %16 = load ptr, ptr getelementptr inbounds nuw (i8, ptr @slurm_conf, i64 1352), align 8
  %.not10.i = icmp eq ptr %16, null
  br i1 %.not10.i, label %21, label %17

17:                                               ; preds = %15
  %18 = tail call i64 @strlen(ptr noundef nonnull dereferenceable(1) %16) #16
  %19 = trunc i64 %18 to i32
  %20 = add i32 %19, 1
  br label %21

21:                                               ; preds = %17, %15
  %.05.i = phi i32 [ %20, %17 ], [ 0, %15 ]
  tail call void @packmem(ptr noundef %16, i32 noundef %.05.i, ptr noundef %7) #15
  %22 = load ptr, ptr getelementptr inbounds nuw (i8, ptr @slurm_conf, i64 1360), align 8
  %.not11.i = icmp eq ptr %22, null
  br i1 %.not11.i, label %_dump_cluster_settings.exit, label %23

23:                                               ; preds = %21
  %24 = tail call i64 @strlen(ptr noundef nonnull dereferenceable(1) %22) #16
  %25 = trunc i64 %24 to i32
  %26 = add i32 %25, 1
  br label %_dump_cluster_settings.exit

_dump_cluster_settings.exit:                      ; preds = %21, %23
  %.0.i = phi i32 [ %26, %23 ], [ 0, %21 ]
  tail call void @packmem(ptr noundef %22, i32 noundef %.0.i, ptr noundef %7) #15
  tail call void @sackd_mgr_dump_state(ptr noundef %7, i16 noundef zeroext 11008) #15
  store i32 0, ptr %1, align 4
  %27 = call ptr @next_node(ptr noundef nonnull %1) #15
  %.not13 = icmp eq ptr %27, null
  br i1 %.not13, label %._crit_edge, label %.lr.ph

.lr.ph:                                           ; preds = %_dump_cluster_settings.exit, %.lr.ph
  %28 = phi ptr [ %31, %.lr.ph ], [ %27, %_dump_cluster_settings.exit ]
  call void @node_record_pack_state(ptr noundef nonnull %28, i16 noundef zeroext 11008, ptr noundef %7) #15
  %29 = load i32, ptr %1, align 4
  %30 = add nsw i32 %29, 1
  store i32 %30, ptr %1, align 4
  %31 = call ptr @next_node(ptr noundef nonnull %1) #15
  %.not = icmp eq ptr %31, null
  br i1 %.not, label %._crit_edge, label %.lr.ph, !llvm.loop !8

._crit_edge:                                      ; preds = %.lr.ph, %_dump_cluster_settings.exit
  call void @unlock_slurmctld(ptr noundef nonnull byval(%struct.slurmctld_lock_t) align 8 @__const.dump_all_node_state.node_read_lock) #15
  %32 = call i32 @save_buf_to_state(ptr noundef nonnull @.str.1, ptr noundef %7, ptr noundef nonnull @dump_all_node_state.high_buffer_size) #15
  %.not12 = icmp eq ptr %7, null
  br i1 %.not12, label %34, label %33

33:                                               ; preds = %._crit_edge
  call void @free_buf(ptr noundef nonnull %7) #15
  br label %34

34:                                               ; preds = %33, %._crit_edge
  %35 = call i32 @gettimeofday(ptr noundef nonnull %3, ptr noundef null) #15
  call void @slurm_diff_tv_str(ptr noundef nonnull %2, ptr noundef nonnull %3, ptr noundef nonnull %4, i32 noundef 20, ptr noundef nonnull @__func__.dump_all_node_state, i64 noundef 0, ptr noundef nonnull %5) #15
  call void @llvm.lifetime.end.p0(i64 8, ptr nonnull %5) #15
  call void @llvm.lifetime.end.p0(i64 20, ptr nonnull %4) #15
  call void @llvm.lifetime.end.p0(i64 16, ptr nonnull %3) #15
  call void @llvm.lifetime.end.p0(i64 16, ptr nonnull %2) #15
  call void @llvm.lifetime.end.p0(i64 4, ptr nonnull %1) #15
  ret i32 %32
}